target datalayout = "e-m:e-p270:32:32-p271:32:32-p272:64:64-i64:64-i128:128-f80:128-n8:16:32:64-S128"
target triple = "x86_64-pc-linux-gnu"

%struct.Param = type { %struct.Expr, i32, i32, i32, i32, i32, i32 }
%struct.Expr = type { i32 }
%struct.ForEachState = type { ptr, i32 }
%struct.PlannerInfo = type { i32, ptr, ptr, i32, ptr, ptr, ptr, ptr, i32, ptr, ptr, ptr, ptr, ptr, ptr, ptr, ptr, i32, ptr, ptr, ptr, ptr, ptr, i8, ptr, ptr, ptr, ptr, ptr, i32, ptr, ptr, ptr, ptr, ptr, ptr, ptr, i32, ptr, ptr, ptr, i32, ptr, ptr, ptr, ptr, ptr, ptr, [8 x ptr], [8 x ptr], ptr, ptr, ptr, ptr, ptr, ptr, ptr, double, double, double, i32, i8, i8, i8, i8, i8, i8, i8, i32, ptr, ptr, i32, i8, i8, i32, ptr, ptr, ptr, ptr, ptr, ptr, i8, ptr }
%struct.List = type { i32, i32, i32, ptr, [0 x %union.ListCell] }
%union.ListCell = type { ptr }
%struct.PlannerParamItem = type { i32, ptr, i32 }
%struct.Node = type { i32 }
%struct.PlannerGlobal = type { i32, ptr, ptr, ptr, ptr, ptr, ptr, ptr, ptr, ptr, ptr, ptr, ptr, ptr, ptr, ptr, ptr, i32, i32, i32, i8, i8, i8, i8, i8, ptr }
%struct.PlaceHolderVar = type { %struct.Expr, ptr, ptr, ptr, i32, i32 }

; Function Attrs: inlinehint nounwind uwtable
define internal i32 @list_length(ptr noundef %0) #2 {
  %2 = alloca ptr, align 8
  store ptr %0, ptr %2, align 8
  %3 = load ptr, ptr %2, align 8
  %4 = icmp ne ptr %3, null
  br i1 %4, label %5, label %9

5:                                                ; preds = %1
  %6 = load ptr, ptr %2, align 8
  %7 = getelementptr inbounds nuw %struct.List, ptr %6, i32 0, i32 1
  %8 = load i32, ptr %7, align 4
  br label %10

9:                                                ; preds = %1
  br label %10

10:                                               ; preds = %9, %5
  %11 = phi i32 [ %8, %5 ], [ 0, %9 ]
  ret i32 %11
}

; Function Attrs: inlinehint nounwind uwtable
define internal ptr @newNode(i64 noundef %0, i32 noundef %1) #2 {
  %3 = alloca i64, align 8
  %4 = alloca i32, align 4
  %5 = alloca ptr, align 8
  store i64 %0, ptr %3, align 8
  store i32 %1, ptr %4, align 4
  call void @llvm.lifetime.start.p0(i64 8, ptr %5) #6
  %6 = load i64, ptr %3, align 8
  %7 = call ptr @palloc0(i64 noundef %6)
  store ptr %7, ptr %5, align 8
  %8 = load i32, ptr %4, align 4
  %9 = load ptr, ptr %5, align 8
  %10 = getelementptr inbounds nuw %struct.Node, ptr %9, i32 0, i32 0
  store i32 %8, ptr %10, align 4
  %11 = load ptr, ptr %5, align 8
  call void @llvm.lifetime.end.p0(i64 8, ptr %5) #6
  ret ptr %11
}

; Function Attrs: nounwind uwtable
define internal i32 @assign_param_for_placeholdervar(ptr noundef %0, ptr noundef %1) #0 {
  %3 = alloca i32, align 4
  %4 = alloca ptr, align 8
  %5 = alloca ptr, align 8
  %6 = alloca ptr, align 8
  %7 = alloca ptr, align 8
  %8 = alloca i32, align 4
  %9 = alloca %struct.ForEachState, align 8
  %10 = alloca i32, align 4
  %11 = alloca ptr, align 8
  store ptr %0, ptr %4, align 8
  store ptr %1, ptr %5, align 8
  call void @llvm.lifetime.start.p0(i64 8, ptr %6) #6
  call void @llvm.lifetime.start.p0(i64 8, ptr %7) #6
  call void @llvm.lifetime.start.p0(i64 4, ptr %8) #6
  %12 = load ptr, ptr %5, align 8
  %13 = getelementptr inbounds nuw %struct.PlaceHolderVar, ptr %12, i32 0, i32 5
  %14 = load i32, ptr %13, align 4
  store i32 %14, ptr %8, align 4
  br label %15

15:                                               ; preds = %22, %2
  %16 = load i32, ptr %8, align 4
  %17 = icmp ugt i32 %16, 0
  br i1 %17, label %18, label %25

18:                                               ; preds = %15
  %19 = load ptr, ptr %4, align 8
  %20 = getelementptr inbounds nuw %struct.PlannerInfo, ptr %19, i32 0, i32 4
  %21 = load ptr, ptr %20, align 8
  store ptr %21, ptr %4, align 8
  br label %22

22:                                               ; preds = %18
  %23 = load i32, ptr %8, align 4
  %24 = add i32 %23, -1
  store i32 %24, ptr %8, align 4
  br label %15, !llvm.loop !7

25:                                               ; preds = %15
  call void @llvm.lifetime.start.p0(i64 16, ptr %9) #6
  %26 = getelementptr inbounds nuw %struct.ForEachState, ptr %9, i32 0, i32 0
  %27 = load ptr, ptr %4, align 8
  %28 = getelementptr inbounds nuw %struct.PlannerInfo, ptr %27, i32 0, i32 5
  %29 = load ptr, ptr %28, align 8
  store ptr %29, ptr %26, align 8
  %30 = getelementptr inbounds nuw %struct.ForEachState, ptr %9, i32 0, i32 1
  store i32 0, ptr %30, align 8
  %31 = getelementptr i8, ptr %9, i64 12
  call void @llvm.memset.p0.i64(ptr align 4 %31, i8 0, i64 4, i1 false)
  br label %32

32:                                               ; preds = %87, %25
  %33 = getelementptr inbounds nuw %struct.ForEachState, ptr %9, i32 0, i32 0
  %34 = load ptr, ptr %33, align 8
  %35 = icmp ne ptr %34, null
  br i1 %35, label %36, label %53

36:                                               ; preds = %32
  %37 = getelementptr inbounds nuw %struct.ForEachState, ptr %9, i32 0, i32 1
  %38 = load i32, ptr %37, align 8
  %39 = getelementptr inbounds nuw %struct.ForEachState, ptr %9, i32 0, i32 0
  %40 = load ptr, ptr %39, align 8
  %41 = getelementptr inbounds nuw %struct.List, ptr %40, i32 0, i32 1
  %42 = load i32, ptr %41, align 4
  %43 = icmp slt i32 %38, %42
  br i1 %43, label %44, label %53

44:                                               ; preds = %36
  %45 = getelementptr inbounds nuw %struct.ForEachState, ptr %9, i32 0, i32 0
  %46 = load ptr, ptr %45, align 8
  %47 = getelementptr inbounds nuw %struct.List, ptr %46, i32 0, i32 3
  %48 = load ptr, ptr %47, align 8
  %49 = getelementptr inbounds nuw %struct.ForEachState, ptr %9, i32 0, i32 1
  %50 = load i32, ptr %49, align 8
  %51 = sext i32 %50 to i64
  %52 = getelementptr inbounds %union.ListCell, ptr %48, i64 %51
  store ptr %52, ptr %6, align 8
  br label %54

53:                                               ; preds = %36, %32
  store ptr null, ptr %6, align 8
  br label %54

54:                                               ; preds = %53, %44
  %55 = phi i32 [ 1, %44 ], [ 0, %53 ]
  %56 = icmp ne i32 %55, 0
  br i1 %56, label %58, label %57

57:                                               ; preds = %54
  store i32 5, ptr %10, align 4
  br label %91

58:                                               ; preds = %54
  %59 = load ptr, ptr %6, align 8
  %60 = load ptr, ptr %59, align 8
  store ptr %60, ptr %7, align 8
  %61 = load ptr, ptr %7, align 8
  %62 = getelementptr inbounds nuw %struct.PlannerParamItem, ptr %61, i32 0, i32 1
  %63 = load ptr, ptr %62, align 8
  %64 = getelementptr inbounds nuw %struct.Node, ptr %63, i32 0, i32 0
  %65 = load i32, ptr %64, align 4
  %66 = icmp eq i32 %65, 318
  br i1 %66, label %67, label %86

67:                                               ; preds = %58
  call void @llvm.lifetime.start.p0(i64 8, ptr %11) #6
  %68 = load ptr, ptr %7, align 8
  %69 = getelementptr inbounds nuw %struct.PlannerParamItem, ptr %68, i32 0, i32 1
  %70 = load ptr, ptr %69, align 8
  store ptr %70, ptr %11, align 8
  %71 = load ptr, ptr %11, align 8
  %72 = getelementptr inbounds nuw %struct.PlaceHolderVar, ptr %71, i32 0, i32 4
  %73 = load i32, ptr %72, align 8
  %74 = load ptr, ptr %5, align 8
  %75 = getelementptr inbounds nuw %struct.PlaceHolderVar, ptr %74, i32 0, i32 4
  %76 = load i32, ptr %75, align 8
  %77 = icmp eq i32 %73, %76
  br i1 %77, label %78, label %82

78:                                               ; preds = %67
  %79 = load ptr, ptr %7, align 8
  %80 = getelementptr inbounds nuw %struct.PlannerParamItem, ptr %79, i32 0, i32 2
  %81 = load i32, ptr %80, align 8
  store i32 %81, ptr %3, align 4
  store i32 1, ptr %10, align 4
  br label %83

82:                                               ; preds = %67
  store i32 0, ptr %10, align 4
  br label %83

83:                                               ; preds = %82, %78
  call void @llvm.lifetime.end.p0(i64 8, ptr %11) #6
  %84 = load i32, ptr %10, align 4
  switch i32 %84, label %91 [
    i32 0, label %85
  ]

85:                                               ; preds = %83
  br label %86

86:                                               ; preds = %85, %58
  br label %87

87:                                               ; preds = %86
  %88 = getelementptr inbounds nuw %struct.ForEachState, ptr %9, i32 0, i32 1
  %89 = load i32, ptr %88, align 8
  %90 = add i32 %89, 1
  store i32 %90, ptr %88, align 8
  br label %32, !llvm.loop !8

91:                                               ; preds = %83, %57
  call void @llvm.lifetime.end.p0(i64 16, ptr %9) #6
  %92 = load i32, ptr %10, align 4
  switch i32 %92, label %137 [
    i32 5, label %93
  ]

93:                                               ; preds = %91
  %94 = load ptr, ptr %5, align 8
  %95 = call ptr @copyObjectImpl(ptr noundef %94)
  store ptr %95, ptr %5, align 8
  %96 = load ptr, ptr %5, align 8
  %97 = load ptr, ptr %5, align 8
  %98 = getelementptr inbounds nuw %struct.PlaceHolderVar, ptr %97, i32 0, i32 5
  %99 = load i32, ptr %98, align 4
  %100 = sub i32 0, %99
  call void @IncrementVarSublevelsUp(ptr noundef %96, i32 noundef %100, i32 noundef 0)
  %101 = call ptr @newNode(i64 noundef 24, i32 noundef 325)
  store ptr %101, ptr %7, align 8
  %102 = load ptr, ptr %5, align 8
  %103 = load ptr, ptr %7, align 8
  %104 = getelementptr inbounds nuw %struct.PlannerParamItem, ptr %103, i32 0, i32 1
  store ptr %102, ptr %104, align 8
  %105 = load ptr, ptr %4, align 8
  %106 = getelementptr inbounds nuw %struct.PlannerInfo, ptr %105, i32 0, i32 2
  %107 = load ptr, ptr %106, align 8
  %108 = getelementptr inbounds nuw %struct.PlannerGlobal, ptr %107, i32 0, i32 16
  %109 = load ptr, ptr %108, align 8
  %110 = call i32 @list_length(ptr noundef %109)
  %111 = load ptr, ptr %7, align 8
  %112 = getelementptr inbounds nuw %struct.PlannerParamItem, ptr %111, i32 0, i32 2
  store i32 %110, ptr %112, align 8
  %113 = load ptr, ptr %4, align 8
  %114 = getelementptr inbounds nuw %struct.PlannerInfo, ptr %113, i32 0, i32 2
  %115 = load ptr, ptr %114, align 8
  %116 = getelementptr inbounds nuw %struct.PlannerGlobal, ptr %115, i32 0, i32 16
  %117 = load ptr, ptr %116, align 8
  %118 = load ptr, ptr %5, align 8
  %119 = getelementptr inbounds nuw %struct.PlaceHolderVar, ptr %118, i32 0, i32 1
  %120 = load ptr, ptr %119, align 8
  %121 = call i32 @exprType(ptr noundef %120)
  %122 = call ptr @lappend_oid(ptr noundef %117, i32 noundef %121)
  %123 = load ptr, ptr %4, align 8
  %124 = getelementptr inbounds nuw %struct.PlannerInfo, ptr %123, i32 0, i32 2
  %125 = load ptr, ptr %124, align 8
  %126 = getelementptr inbounds nuw %struct.PlannerGlobal, ptr %125, i32 0, i32 16
  store ptr %122, ptr %126, align 8
  %127 = load ptr, ptr %4, align 8
  %128 = getelementptr inbounds nuw %struct.PlannerInfo, ptr %127, i32 0, i32 5
  %129 = load ptr, ptr %128, align 8
  %130 = load ptr, ptr %7, align 8
  %131 = call ptr @lappend(ptr noundef %129, ptr noundef %130)
  %132 = load ptr, ptr %4, align 8
  %133 = getelementptr inbounds nuw %struct.PlannerInfo, ptr %132, i32 0, i32 5
  store ptr %131, ptr %133, align 8
  %134 = load ptr, ptr %7, align 8
  %135 = getelementptr inbounds nuw %struct.PlannerParamItem, ptr %134, i32 0, i32 2
  %136 = load i32, ptr %135, align 8
  store i32 %136, ptr %3, align 4
  store i32 1, ptr %10, align 4
  br label %137

137:                                              ; preds = %93, %91
  call void @llvm.lifetime.end.p0(i64 4, ptr %8) #6
  call void @llvm.lifetime.end.p0(i64 8, ptr %7) #6
  call void @llvm.lifetime.end.p0(i64 8, ptr %6) #6
  %138 = load i32, ptr %3, align 4
  ret i32 %138
}

; Function Attrs: nounwind uwtable
define dso_local ptr @replace_outer_placeholdervar(ptr noundef %0, ptr noundef %1) #0 {
  %3 = alloca ptr, align 8
  %4 = alloca ptr, align 8
  %5 = alloca ptr, align 8
  %6 = alloca i32, align 4
  store ptr %0, ptr %3, align 8
  store ptr %1, ptr %4, align 8
  call void @llvm.lifetime.start.p0(i64 8, ptr %5) #6
  call void @llvm.lifetime.start.p0(i64 4, ptr %6) #6
  %7 = load ptr, ptr %3, align 8
  %8 = load ptr, ptr %4, align 8
  %9 = call i32 @assign_param_for_placeholdervar(ptr noundef %7, ptr noundef %8)
  store i32 %9, ptr %6, align 4
  %10 = call ptr @newNode(i64 noundef 28, i32 noundef 8)
  store ptr %10, ptr %5, align 8
  %11 = load ptr, ptr %5, align 8
  %12 = getelementptr inbounds nuw %struct.Param, ptr %11, i32 0, i32 1
  store i32 1, ptr %12, align 4
  %13 = load i32, ptr %6, align 4
  %14 = load ptr, ptr %5, align 8
  %15 = getelementptr inbounds nuw %struct.Param, ptr %14, i32 0, i32 2
  store i32 %13, ptr %15, align 4
  %16 = load ptr, ptr %4, align 8
  %17 = getelementptr inbounds nuw %struct.PlaceHolderVar, ptr %16, i32 0, i32 1
  %18 = load ptr, ptr %17, align 8
  %19 = call i32 @exprType(ptr noundef %18)
  %20 = load ptr, ptr %5, align 8
  %21 = getelementptr inbounds nuw %struct.Param, ptr %20, i32 0, i32 3
  store i32 %19, ptr %21, align 4
  %22 = load ptr, ptr %4, align 8
  %23 = getelementptr inbounds nuw %struct.PlaceHolderVar, ptr %22, i32 0, i32 1
  %24 = load ptr, ptr %23, align 8
  %25 = call i32 @exprTypmod(ptr noundef %24)
  %26 = load ptr, ptr %5, align 8
  %27 = getelementptr inbounds nuw %struct.Param, ptr %26, i32 0, i32 4
  store i32 %25, ptr %27, align 4
  %28 = load ptr, ptr %4, align 8
  %29 = getelementptr inbounds nuw %struct.PlaceHolderVar, ptr %28, i32 0, i32 1
  %30 = load ptr, ptr %29, align 8
  %31 = call i32 @exprCollation(ptr noundef %30)
  %32 = load ptr, ptr %5, align 8
  %33 = getelementptr inbounds nuw %struct.Param, ptr %32, i32 0, i32 5
  store i32 %31, ptr %33, align 4
  %34 = load ptr, ptr %5, align 8
  %35 = getelementptr inbounds nuw %struct.Param, ptr %34, i32 0, i32 6
  store i32 -1, ptr %35, align 4
  %36 = load ptr, ptr %5, align 8
  call void @llvm.lifetime.end.p0(i64 4, ptr %6) #6
  call void @llvm.lifetime.end.p0(i64 8, ptr %5) #6
  ret ptr %36
}