; Function Attrs: nounwind uwtable
define dso_local noundef ptr @replace_outer_placeholdervar(ptr noundef captures(none) %0, ptr noundef %1) local_unnamed_addr #0 {
  %3 = getelementptr inbounds nuw i8, ptr %1, i64 36
  %4 = load i32, ptr %3, align 4
  %.not49.i = icmp eq i32 %4, 0
  br i1 %.not49.i, label %._crit_edge.i, label %.lr.ph.i

.lr.ph.i:                                         ; preds = %2, %.lr.ph.i
  %.03451.i = phi ptr [ %6, %.lr.ph.i ], [ %0, %2 ]
  %.03550.i = phi i32 [ %7, %.lr.ph.i ], [ %4, %2 ]
  %5 = getelementptr inbounds nuw i8, ptr %.03451.i, i64 32
  %6 = load ptr, ptr %5, align 8
  %7 = add i32 %.03550.i, -1
  %.not.i = icmp eq i32 %7, 0
  br i1 %.not.i, label %._crit_edge.i, label %.lr.ph.i, !llvm.loop !6

._crit_edge.i:                                    ; preds = %.lr.ph.i, %2
  %.034.lcssa.i = phi ptr [ %0, %2 ], [ %6, %.lr.ph.i ]
  %8 = getelementptr inbounds nuw i8, ptr %.034.lcssa.i, i64 40
  %9 = load ptr, ptr %8, align 8
  %.not38.i = icmp eq ptr %9, null
  br i1 %.not38.i, label %._crit_edge55.i, label %.lr.ph54.i

.lr.ph54.i:                                       ; preds = %._crit_edge.i
  %10 = getelementptr inbounds nuw i8, ptr %9, i64 4
  %11 = load i32, ptr %10, align 4
  %12 = getelementptr inbounds nuw i8, ptr %1, i64 32
  %13 = icmp sgt i32 %11, 0
  br i1 %13, label %.lr.ph58.i, label %._crit_edge55.i

.lr.ph58.i:                                       ; preds = %.lr.ph54.i
  %14 = getelementptr inbounds nuw i8, ptr %9, i64 16
  %15 = load ptr, ptr %14, align 8
  %wide.trip.count.i = zext nneg i32 %11 to i64
  br label %16

16:                                               ; preds = %27, %.lr.ph58.i
  %indvars.iv.i = phi i64 [ 0, %.lr.ph58.i ], [ %indvars.iv.next.i, %27 ]
  %17 = getelementptr inbounds nuw %union.ListCell, ptr %15, i64 %indvars.iv.i
  %18 = load ptr, ptr %17, align 8
  %19 = getelementptr inbounds nuw i8, ptr %18, i64 8
  %20 = load ptr, ptr %19, align 8
  %21 = load i32, ptr %20, align 4
  %22 = icmp eq i32 %21, 318
  br i1 %22, label %23, label %27

23:                                               ; preds = %16
  %24 = getelementptr inbounds nuw i8, ptr %20, i64 32
  %25 = load i32, ptr %24, align 8
  %26 = load i32, ptr %12, align 8
  %.not40.i = icmp eq i32 %25, %26
  br i1 %.not40.i, label %.split.i, label %27

27:                                               ; preds = %23, %16
  %indvars.iv.next.i = add nuw nsw i64 %indvars.iv.i, 1
  %exitcond.not.i = icmp eq i64 %indvars.iv.next.i, %wide.trip.count.i
  br i1 %exitcond.not.i, label %._crit_edge55.i, label %16

.split.i:                                         ; preds = %23
  %28 = getelementptr inbounds nuw i8, ptr %18, i64 16
  br label %assign_param_for_placeholdervar.exit

._crit_edge55.i:                                  ; preds = %27, %.lr.ph54.i, %._crit_edge.i
  %29 = tail call ptr @copyObjectImpl(ptr noundef %1) #4
  %30 = getelementptr inbounds nuw i8, ptr %29, i64 36
  %31 = load i32, ptr %30, align 4
  %32 = sub i32 0, %31
  tail call void @IncrementVarSublevelsUp(ptr noundef %29, i32 noundef %32, i32 noundef 0) #4
  %33 = tail call noundef ptr @palloc0(i64 noundef 24) #4
  store i32 325, ptr %33, align 4
  %34 = getelementptr inbounds nuw i8, ptr %33, i64 8
  store ptr %29, ptr %34, align 8
  %35 = getelementptr inbounds nuw i8, ptr %.034.lcssa.i, i64 16
  %36 = load ptr, ptr %35, align 8
  %37 = getelementptr inbounds nuw i8, ptr %36, i64 128
  %38 = load ptr, ptr %37, align 8
  %.not.i.i = icmp eq ptr %38, null
  br i1 %.not.i.i, label %list_length.exit.i, label %39

39:                                               ; preds = %._crit_edge55.i
  %40 = getelementptr inbounds nuw i8, ptr %38, i64 4
  %41 = load i32, ptr %40, align 4
  br label %list_length.exit.i

list_length.exit.i:                               ; preds = %39, %._crit_edge55.i
  %42 = phi i32 [ %41, %39 ], [ 0, %._crit_edge55.i ]
  %43 = getelementptr inbounds nuw i8, ptr %33, i64 16
  store i32 %42, ptr %43, align 8
  %44 = load ptr, ptr %35, align 8
  %45 = getelementptr inbounds nuw i8, ptr %44, i64 128
  %46 = load ptr, ptr %45, align 8
  %47 = getelementptr inbounds nuw i8, ptr %29, i64 8
  %48 = load ptr, ptr %47, align 8
  %49 = tail call i32 @exprType(ptr noundef %48) #4
  %50 = tail call ptr @lappend_oid(ptr noundef %46, i32 noundef %49) #4
  %51 = load ptr, ptr %35, align 8
  %52 = getelementptr inbounds nuw i8, ptr %51, i64 128
  store ptr %50, ptr %52, align 8
  %53 = load ptr, ptr %8, align 8
  %54 = tail call ptr @lappend(ptr noundef %53, ptr noundef nonnull %33) #4
  store ptr %54, ptr %8, align 8
  br label %assign_param_for_placeholdervar.exit

assign_param_for_placeholdervar.exit:             ; preds = %.split.i, %list_length.exit.i
  %.4.in.i = phi ptr [ %43, %list_length.exit.i ], [ %28, %.split.i ]
  %.4.i = load i32, ptr %.4.in.i, align 8
  %55 = tail call noundef ptr @palloc0(i64 noundef 28) #4
  store i32 8, ptr %55, align 4
  %56 = getelementptr inbounds nuw i8, ptr %55, i64 4
  store i32 1, ptr %56, align 4
  %57 = getelementptr inbounds nuw i8, ptr %55, i64 8
  store i32 %.4.i, ptr %57, align 4
  %58 = getelementptr inbounds nuw i8, ptr %1, i64 8
  %59 = load ptr, ptr %58, align 8
  %60 = tail call i32 @exprType(ptr noundef %59) #4
  %61 = getelementptr inbounds nuw i8, ptr %55, i64 12
  store i32 %60, ptr %61, align 4
  %62 = load ptr, ptr %58, align 8
  %63 = tail call i32 @exprTypmod(ptr noundef %62) #4
  %64 = getelementptr inbounds nuw i8, ptr %55, i64 16
  store i32 %63, ptr %64, align 4
  %65 = load ptr, ptr %58, align 8
  %66 = tail call i32 @exprCollation(ptr noundef %65) #4
  %67 = getelementptr inbounds nuw i8, ptr %55, i64 20
  store i32 %66, ptr %67, align 4
  %68 = getelementptr inbounds nuw i8, ptr %55, i64 24
  store i32 -1, ptr %68, align 4
  ret ptr %55
}